
periph-p-TIMER:     file format elf32-littleriscv


Disassembly of section .ivt:

00008000 <.ivt>:
    8000:	a01fd06f          	j	5a00 <_start-0x2800>
    8004:	bfdfd06f          	j	5c00 <_start-0x2600>
    8008:	df9fd06f          	j	5e00 <_start-0x2400>
    800c:	ff5fd06f          	j	6000 <_start-0x2200>
    8010:	9f0fe06f          	j	6200 <_start-0x2000>
    8014:	becfe06f          	j	6400 <_start-0x1e00>
    8018:	de8fe06f          	j	6600 <_start-0x1c00>
    801c:	fe4fe06f          	j	6800 <_start-0x1a00>
    8020:	9e1fe06f          	j	6a00 <_start-0x1800>
    8024:	3dd0706f          	j	fc00 <isr_timer0+0x6d4c>
    8028:	5d90706f          	j	fe00 <_end>
    802c:	fd5fe06f          	j	7000 <_start-0x1200>
    8030:	9d0ff06f          	j	7200 <_start-0x1000>
    8034:	3cc0706f          	j	f400 <isr_timer0+0x654c>
    8038:	5c80706f          	j	f600 <isr_timer0+0x674c>
    803c:	7c40706f          	j	f800 <isr_timer0+0x694c>
    8040:	9c1ff06f          	j	7a00 <_start-0x800>
    8044:	bbdff06f          	j	7c00 <_start-0x600>
    8048:	db9ff06f          	j	7e00 <_start-0x400>
    804c:	fb5ff06f          	j	8000 <_start-0x200>
    8050:	1b00006f          	j	8200 <_start>
    8054:	3ac0006f          	j	8400 <interrupt_flag_tests>
    8058:	5a80006f          	j	8600 <test_timer_value_persistence+0x8>
    805c:	7a40006f          	j	8800 <test_compare_initial_levels+0x48>
    8060:	1a10006f          	j	8a00 <test_multiple_captures+0x40>
    8064:	39d0006f          	j	8c00 <test_interrupt_flag_clearing+0x2c>
    8068:	5990006f          	j	8e00 <wait_cmp2_loop+0x4>
    806c:	7950006f          	j	9000 <isr_timer0+0x14c>
    8070:	1900106f          	j	9200 <isr_timer0+0x34c>
    8074:	38c0106f          	j	9400 <isr_timer0+0x54c>
    8078:	5880106f          	j	9600 <isr_timer0+0x74c>
    807c:	7840106f          	j	9800 <isr_timer0+0x94c>
    8080:	1810106f          	j	9a00 <isr_timer0+0xb4c>
    8084:	37d0106f          	j	9c00 <isr_timer0+0xd4c>
    8088:	5790106f          	j	9e00 <isr_timer0+0xf4c>
    808c:	7750106f          	j	a000 <isr_timer0+0x114c>
    8090:	1700206f          	j	a200 <isr_timer0+0x134c>
    8094:	36c0206f          	j	a400 <isr_timer0+0x154c>
    8098:	5680206f          	j	a600 <isr_timer0+0x174c>
    809c:	7640206f          	j	a800 <isr_timer0+0x194c>
    80a0:	1610206f          	j	aa00 <isr_timer0+0x1b4c>
    80a4:	35d0206f          	j	ac00 <isr_timer0+0x1d4c>
    80a8:	5590206f          	j	ae00 <isr_timer0+0x1f4c>
    80ac:	7550206f          	j	b000 <isr_timer0+0x214c>
    80b0:	1500306f          	j	b200 <isr_timer0+0x234c>
    80b4:	34c0306f          	j	b400 <isr_timer0+0x254c>
    80b8:	5480306f          	j	b600 <isr_timer0+0x274c>
    80bc:	7440306f          	j	b800 <isr_timer0+0x294c>
    80c0:	1410306f          	j	ba00 <isr_timer0+0x2b4c>
    80c4:	33d0306f          	j	bc00 <isr_timer0+0x2d4c>
    80c8:	5390306f          	j	be00 <isr_timer0+0x2f4c>
    80cc:	7350306f          	j	c000 <isr_timer0+0x314c>
    80d0:	4310606f          	j	ed00 <isr_timer0+0x5e4c>
    80d4:	72d0606f          	j	f000 <isr_timer0+0x614c>
    80d8:	1280706f          	j	f200 <isr_timer0+0x634c>
    80dc:	7240406f          	j	c800 <isr_timer0+0x394c>
    80e0:	1210406f          	j	ca00 <isr_timer0+0x3b4c>
    80e4:	31d0406f          	j	cc00 <isr_timer0+0x3d4c>
    80e8:	5190406f          	j	ce00 <isr_timer0+0x3f4c>
    80ec:	7150406f          	j	d000 <isr_timer0+0x414c>
    80f0:	1100506f          	j	d200 <isr_timer0+0x434c>
    80f4:	30c0506f          	j	d400 <isr_timer0+0x454c>
    80f8:	5080506f          	j	d600 <isr_timer0+0x474c>
    80fc:	7040506f          	j	d800 <isr_timer0+0x494c>
    8100:	1010506f          	j	da00 <isr_timer0+0x4b4c>
    8104:	2fd0506f          	j	dc00 <isr_timer0+0x4d4c>
    8108:	4f90506f          	j	de00 <isr_timer0+0x4f4c>
    810c:	6f50506f          	j	e000 <isr_timer0+0x514c>
    8110:	0f00606f          	j	e200 <isr_timer0+0x534c>
    8114:	2ec0606f          	j	e400 <isr_timer0+0x554c>
    8118:	4e80606f          	j	e600 <isr_timer0+0x574c>
    811c:	6e40606f          	j	e800 <isr_timer0+0x594c>
    8120:	0e10606f          	j	ea00 <isr_timer0+0x5b4c>
    8124:	2dd0606f          	j	ec00 <isr_timer0+0x5d4c>
    8128:	4d90606f          	j	ee00 <isr_timer0+0x5f4c>
    812c:	6d50606f          	j	f000 <isr_timer0+0x614c>
    8130:	0d00706f          	j	f200 <isr_timer0+0x634c>
    8134:	2cc0706f          	j	f400 <isr_timer0+0x654c>
    8138:	4c80706f          	j	f600 <isr_timer0+0x674c>
    813c:	6c40706f          	j	f800 <isr_timer0+0x694c>
    8140:	0c10706f          	j	fa00 <isr_timer0+0x6b4c>
    8144:	2bd0706f          	j	fc00 <isr_timer0+0x6d4c>
    8148:	4b90706f          	j	fe00 <_end>

Disassembly of section .text.init:

00008200 <_start>:
    8200:	0040006f          	j	8204 <reset_vector>

00008204 <reset_vector>:
    8204:	00000093          	li	ra,0
    8208:	00000113          	li	sp,0
    820c:	00000193          	li	gp,0
    8210:	00000213          	li	tp,0
    8214:	00000293          	li	t0,0
    8218:	00000313          	li	t1,0
    821c:	00000393          	li	t2,0
    8220:	00000413          	li	s0,0
    8224:	00000493          	li	s1,0
    8228:	00000513          	li	a0,0
    822c:	00000593          	li	a1,0
    8230:	00000613          	li	a2,0
    8234:	00000693          	li	a3,0
    8238:	00000713          	li	a4,0
    823c:	00000793          	li	a5,0
    8240:	00000813          	li	a6,0
    8244:	00000893          	li	a7,0
    8248:	00000913          	li	s2,0
    824c:	00000993          	li	s3,0
    8250:	00000a13          	li	s4,0
    8254:	00000a93          	li	s5,0
    8258:	00000b13          	li	s6,0
    825c:	00000b93          	li	s7,0
    8260:	00000c13          	li	s8,0
    8264:	00000c93          	li	s9,0
    8268:	00000d13          	li	s10,0
    826c:	00000d93          	li	s11,0
    8270:	00000e13          	li	t3,0
    8274:	00000e93          	li	t4,0
    8278:	00000f13          	li	t5,0
    827c:	00000f93          	li	t6,0
    8280:	00000193          	li	gp,0
    8284:	00000297          	auipc	t0,0x0
    8288:	00c28293          	addi	t0,t0,12 # 8290 <system_init>
    828c:	00028067          	jr	t0

00008290 <system_init>:
    8290:	00005537          	lui	a0,0x5
    8294:	90050513          	addi	a0,a0,-1792 # 4900 <_start-0x3900>
    8298:	00052023          	sw	zero,0(a0)
    829c:	00000513          	li	a0,0

000082a0 <timer_test_start>:
    82a0:	00000d93          	li	s11,0

000082a4 <test_timer_peripheral_loop>:
    82a4:	000d8863          	beqz	s11,82b4 <use_timer_peripheral_0>

000082a8 <use_timer_peripheral_1>:
    82a8:	00004537          	lui	a0,0x4
    82ac:	70050513          	addi	a0,a0,1792 # 4700 <_start-0x3b00>
    82b0:	00c0006f          	j	82bc <set_timer_gpio>

000082b4 <use_timer_peripheral_0>:
    82b4:	00004537          	lui	a0,0x4
    82b8:	60050513          	addi	a0,a0,1536 # 4600 <_start-0x3c00>

000082bc <set_timer_gpio>:
    82bc:	000045b7          	lui	a1,0x4
    82c0:	10058593          	addi	a1,a1,256 # 4100 <_start-0x4100>
    82c4:	00005637          	lui	a2,0x5
    82c8:	80060613          	addi	a2,a2,-2048 # 4800 <_start-0x3a00>
    82cc:	00000193          	li	gp,0
    82d0:	28d000ef          	jal	8d5c <init_gpio_timer>
    82d4:	29d000ef          	jal	8d70 <init_gpio_interrogator>

000082d8 <init_resets>:
    82d8:	08000293          	li	t0,128
    82dc:	00552023          	sw	t0,0(a0)
    82e0:	2c5000ef          	jal	8da4 <wait_short>
    82e4:	00052023          	sw	zero,0(a0)

000082e8 <test_suite>:
    82e8:	044000ef          	jal	832c <basic_timer_tests>
    82ec:	08c000ef          	jal	8378 <compare_pwm_tests>
    82f0:	0d4000ef          	jal	83c4 <input_capture_tests>
    82f4:	10c000ef          	jal	8400 <interrupt_flag_tests>
    82f8:	154000ef          	jal	844c <clock_divider_tests>
    82fc:	001d8d93          	addi	s11,s11,1
    8300:	00200293          	li	t0,2
    8304:	fa5dc0e3          	blt	s11,t0,82a4 <test_timer_peripheral_loop>

00008308 <all_tests_passed>:
    8308:	00301a63          	bne	zero,gp,831c <pass>

0000830c <fail>:
    830c:	deadc537          	lui	a0,0xdeadc
    8310:	eef50513          	addi	a0,a0,-273 # deadbeef <_end+0xdeacc0ef>
    8314:	0040006f          	j	8318 <_fail_label>

00008318 <_fail_label>:
    8318:	0000006f          	j	8318 <_fail_label>

0000831c <pass>:
    831c:	cafec537          	lui	a0,0xcafec
    8320:	abe50513          	addi	a0,a0,-1346 # cafebabe <_end+0xcafdbcbe>
    8324:	0040006f          	j	8328 <_pass_label>

00008328 <_pass_label>:
    8328:	0000006f          	j	8328 <_pass_label>

0000832c <basic_timer_tests>:
    832c:	00008d13          	mv	s10,ra
    8330:	00118193          	addi	gp,gp,1
    8334:	144000ef          	jal	8478 <test_timer_enable_disable>
    8338:	00118193          	addi	gp,gp,1
    833c:	17c000ef          	jal	84b8 <test_timer_counting>
    8340:	00118193          	addi	gp,gp,1
    8344:	1b8000ef          	jal	84fc <test_timer_value_rw>
    8348:	00118193          	addi	gp,gp,1
    834c:	1fc000ef          	jal	8548 <test_timer_overflow>
    8350:	00118193          	addi	gp,gp,1
    8354:	230000ef          	jal	8584 <test_timer_reset>
    8358:	00118193          	addi	gp,gp,1
    835c:	254000ef          	jal	85b0 <test_timer_start_stop_cycles>
    8360:	00118193          	addi	gp,gp,1
    8364:	294000ef          	jal	85f8 <test_timer_value_persistence>
    8368:	00118193          	addi	gp,gp,1
    836c:	2c8000ef          	jal	8634 <test_config_register_access>
    8370:	000d0093          	mv	ra,s10
    8374:	00008067          	ret

00008378 <compare_pwm_tests>:
    8378:	00008d13          	mv	s10,ra
    837c:	00118193          	addi	gp,gp,1
    8380:	2f0000ef          	jal	8670 <test_compare0_match>
    8384:	00118193          	addi	gp,gp,1
    8388:	320000ef          	jal	86a8 <test_compare1_match>
    838c:	00118193          	addi	gp,gp,1
    8390:	348000ef          	jal	86d8 <test_compare2_reset>
    8394:	00118193          	addi	gp,gp,1
    8398:	37c000ef          	jal	8714 <test_pwm_generation>
    839c:	00118193          	addi	gp,gp,1
    83a0:	3c0000ef          	jal	8760 <test_multiple_compares>
    83a4:	00118193          	addi	gp,gp,1
    83a8:	410000ef          	jal	87b8 <test_compare_initial_levels>
    83ac:	00118193          	addi	gp,gp,1
    83b0:	454000ef          	jal	8804 <test_pwm_duty_cycles>
    83b4:	00118193          	addi	gp,gp,1
    83b8:	4f4000ef          	jal	88ac <test_compare_register_updates>
    83bc:	000d0093          	mv	ra,s10
    83c0:	00008067          	ret

000083c4 <input_capture_tests>:
    83c4:	00008d13          	mv	s10,ra
    83c8:	00118193          	addi	gp,gp,1
    83cc:	518000ef          	jal	88e4 <test_capture0_rising_edge>
    83d0:	00118193          	addi	gp,gp,1
    83d4:	54c000ef          	jal	8920 <test_capture0_falling_edge>
    83d8:	00118193          	addi	gp,gp,1
    83dc:	57c000ef          	jal	8958 <test_capture1_rising_edge>
    83e0:	00118193          	addi	gp,gp,1
    83e4:	5ac000ef          	jal	8990 <test_capture1_falling_edge>
    83e8:	00118193          	addi	gp,gp,1
    83ec:	5d4000ef          	jal	89c0 <test_multiple_captures>
    83f0:	00118193          	addi	gp,gp,1
    83f4:	620000ef          	jal	8a14 <test_capture_timing>
    83f8:	000d0093          	mv	ra,s10
    83fc:	00008067          	ret

00008400 <interrupt_flag_tests>:
    8400:	00008d13          	mv	s10,ra
    8404:	00118193          	addi	gp,gp,1
    8408:	65c000ef          	jal	8a64 <test_compare0_interrupt>
    840c:	00118193          	addi	gp,gp,1
    8410:	698000ef          	jal	8aa8 <test_compare1_interrupt>
    8414:	00118193          	addi	gp,gp,1
    8418:	6c0000ef          	jal	8ad8 <test_compare2_interrupt>
    841c:	00118193          	addi	gp,gp,1
    8420:	6e8000ef          	jal	8b08 <test_overflow_interrupt>
    8424:	00118193          	addi	gp,gp,1
    8428:	710000ef          	jal	8b38 <test_capture_interrupts>
    842c:	00118193          	addi	gp,gp,1
    8430:	734000ef          	jal	8b64 <test_interrupt_enable_disable>
    8434:	00118193          	addi	gp,gp,1
    8438:	75c000ef          	jal	8b94 <test_multiple_interrupt_flags>
    843c:	00118193          	addi	gp,gp,1
    8440:	794000ef          	jal	8bd4 <test_interrupt_flag_clearing>
    8444:	000d0093          	mv	ra,s10
    8448:	00008067          	ret

0000844c <clock_divider_tests>:
    844c:	00008d13          	mv	s10,ra
    8450:	00118193          	addi	gp,gp,1
    8454:	7c8000ef          	jal	8c1c <test_clock_source_selection>
    8458:	00118193          	addi	gp,gp,1
    845c:	005000ef          	jal	8c60 <test_clock_divider_functionality>
    8460:	00118193          	addi	gp,gp,1
    8464:	039000ef          	jal	8c9c <test_divider_ratios>
    8468:	00118193          	addi	gp,gp,1
    846c:	00118193          	addi	gp,gp,1
    8470:	000d0093          	mv	ra,s10
    8474:	00008067          	ret

00008478 <test_timer_enable_disable>:
    8478:	00008493          	mv	s1,ra
    847c:	109000ef          	jal	8d84 <reset_timer>
    8480:	00852283          	lw	t0,8(a0)
    8484:	e80294e3          	bnez	t0,830c <fail>
    8488:	04000a93          	li	s5,64
    848c:	01552023          	sw	s5,0(a0)
    8490:	115000ef          	jal	8da4 <wait_short>
    8494:	00852303          	lw	t1,8(a0)
    8498:	e6030ae3          	beqz	t1,830c <fail>
    849c:	00052023          	sw	zero,0(a0)
    84a0:	00852383          	lw	t2,8(a0)
    84a4:	101000ef          	jal	8da4 <wait_short>
    84a8:	00852e03          	lw	t3,8(a0)
    84ac:	e7c390e3          	bne	t2,t3,830c <fail>
    84b0:	00048093          	mv	ra,s1
    84b4:	00008067          	ret

000084b8 <test_timer_counting>:
    84b8:	00008493          	mv	s1,ra
    84bc:	0c9000ef          	jal	8d84 <reset_timer>
    84c0:	10000a93          	li	s5,256
    84c4:	01552023          	sw	s5,0(a0)
    84c8:	0dd000ef          	jal	8da4 <wait_short>
    84cc:	14000a93          	li	s5,320
    84d0:	01552023          	sw	s5,0(a0)
    84d4:	00852983          	lw	s3,8(a0)
    84d8:	0dd000ef          	jal	8db4 <wait_medium>
    84dc:	00852a03          	lw	s4,8(a0)
    84e0:	e349d6e3          	bge	s3,s4,830c <fail>
    84e4:	000a0993          	mv	s3,s4
    84e8:	0cd000ef          	jal	8db4 <wait_medium>
    84ec:	00852a03          	lw	s4,8(a0)
    84f0:	e149dee3          	bge	s3,s4,830c <fail>
    84f4:	00048093          	mv	ra,s1
    84f8:	00008067          	ret

000084fc <test_timer_value_rw>:
    84fc:	00008493          	mv	s1,ra
    8500:	085000ef          	jal	8d84 <reset_timer>
    8504:	123459b7          	lui	s3,0x12345
    8508:	67898993          	addi	s3,s3,1656 # 12345678 <_end+0x12335878>
    850c:	01352423          	sw	s3,8(a0)
    8510:	00852283          	lw	t0,8(a0)
    8514:	de599ce3          	bne	s3,t0,830c <fail>
    8518:	abcdf9b7          	lui	s3,0xabcdf
    851c:	f0098993          	addi	s3,s3,-256 # abcdef00 <_end+0xabccf100>
    8520:	01352423          	sw	s3,8(a0)
    8524:	00852283          	lw	t0,8(a0)
    8528:	de5992e3          	bne	s3,t0,830c <fail>
    852c:	04000a93          	li	s5,64
    8530:	01552023          	sw	s5,0(a0)
    8534:	081000ef          	jal	8db4 <wait_medium>
    8538:	00852303          	lw	t1,8(a0)
    853c:	dc69d8e3          	bge	s3,t1,830c <fail>
    8540:	00048093          	mv	ra,s1
    8544:	00008067          	ret

00008548 <test_timer_overflow>:
    8548:	00008493          	mv	s1,ra
    854c:	039000ef          	jal	8d84 <reset_timer>
    8550:	04800a93          	li	s5,72
    8554:	01552023          	sw	s5,0(a0)
    8558:	ffe00993          	li	s3,-2
    855c:	01352423          	sw	s3,8(a0)
    8560:	055000ef          	jal	8db4 <wait_medium>
    8564:	00452283          	lw	t0,4(a0)
    8568:	0082f293          	andi	t0,t0,8
    856c:	da0280e3          	beqz	t0,830c <fail>
    8570:	00852303          	lw	t1,8(a0)
    8574:	0ffff3b7          	lui	t2,0xffff
    8578:	d8735ae3          	bge	t1,t2,830c <fail>
    857c:	00048093          	mv	ra,s1
    8580:	00008067          	ret

00008584 <test_timer_reset>:
    8584:	00008493          	mv	s1,ra
    8588:	04000a93          	li	s5,64
    858c:	01552023          	sw	s5,0(a0)
    8590:	025000ef          	jal	8db4 <wait_medium>
    8594:	00852283          	lw	t0,8(a0)
    8598:	d6028ae3          	beqz	t0,830c <fail>
    859c:	7e8000ef          	jal	8d84 <reset_timer>
    85a0:	00852283          	lw	t0,8(a0)
    85a4:	d60294e3          	bnez	t0,830c <fail>
    85a8:	00048093          	mv	ra,s1
    85ac:	00008067          	ret

000085b0 <test_timer_start_stop_cycles>:
    85b0:	00008493          	mv	s1,ra
    85b4:	7d0000ef          	jal	8d84 <reset_timer>
    85b8:	00300413          	li	s0,3

000085bc <start_stop_loop>:
    85bc:	04000a93          	li	s5,64
    85c0:	01552023          	sw	s5,0(a0)
    85c4:	00852983          	lw	s3,8(a0)
    85c8:	7dc000ef          	jal	8da4 <wait_short>
    85cc:	00852a03          	lw	s4,8(a0)
    85d0:	d349dee3          	bge	s3,s4,830c <fail>
    85d4:	00052023          	sw	zero,0(a0)
    85d8:	00852983          	lw	s3,8(a0)
    85dc:	7c8000ef          	jal	8da4 <wait_short>
    85e0:	00852a03          	lw	s4,8(a0)
    85e4:	d34994e3          	bne	s3,s4,830c <fail>
    85e8:	fff40413          	addi	s0,s0,-1
    85ec:	fc0418e3          	bnez	s0,85bc <start_stop_loop>
    85f0:	00048093          	mv	ra,s1
    85f4:	00008067          	ret

000085f8 <test_timer_value_persistence>:
    85f8:	00008493          	mv	s1,ra
    85fc:	04000a93          	li	s5,64
    8600:	01552023          	sw	s5,0(a0)
    8604:	7b0000ef          	jal	8db4 <wait_medium>
    8608:	00052023          	sw	zero,0(a0)
    860c:	00852983          	lw	s3,8(a0)
    8610:	7a4000ef          	jal	8db4 <wait_medium>
    8614:	00852283          	lw	t0,8(a0)
    8618:	ce599ae3          	bne	s3,t0,830c <fail>
    861c:	01552023          	sw	s5,0(a0)
    8620:	784000ef          	jal	8da4 <wait_short>
    8624:	00852303          	lw	t1,8(a0)
    8628:	ce69d2e3          	bge	s3,t1,830c <fail>
    862c:	00048093          	mv	ra,s1
    8630:	00008067          	ret

00008634 <test_config_register_access>:
    8634:	00008493          	mv	s1,ra
    8638:	14100993          	li	s3,321
    863c:	01352023          	sw	s3,0(a0)
    8640:	00052283          	lw	t0,0(a0)
    8644:	cc5994e3          	bne	s3,t0,830c <fail>
    8648:	000319b7          	lui	s3,0x31
    864c:	c0098993          	addi	s3,s3,-1024 # 30c00 <_end+0x20e00>
    8650:	01352023          	sw	s3,0(a0)
    8654:	00052283          	lw	t0,0(a0)
    8658:	ca599ae3          	bne	s3,t0,830c <fail>
    865c:	00052023          	sw	zero,0(a0)
    8660:	00052283          	lw	t0,0(a0)
    8664:	ca0294e3          	bnez	t0,830c <fail>
    8668:	00048093          	mv	ra,s1
    866c:	00008067          	ret

00008670 <test_compare0_match>:
    8670:	00008493          	mv	s1,ra
    8674:	710000ef          	jal	8d84 <reset_timer>
    8678:	06400993          	li	s3,100
    867c:	01352623          	sw	s3,12(a0)
    8680:	04100a93          	li	s5,65
    8684:	01552023          	sw	s5,0(a0)
    8688:	754000ef          	jal	8ddc <wait_cmp0_loop>
    868c:	00452283          	lw	t0,4(a0)
    8690:	0012f293          	andi	t0,t0,1
    8694:	c6028ce3          	beqz	t0,830c <fail>
    8698:	00852303          	lw	t1,8(a0)
    869c:	c669d8e3          	bge	s3,t1,830c <fail>
    86a0:	00048093          	mv	ra,s1
    86a4:	00008067          	ret

000086a8 <test_compare1_match>:
    86a8:	00008493          	mv	s1,ra
    86ac:	6d8000ef          	jal	8d84 <reset_timer>
    86b0:	0c800993          	li	s3,200
    86b4:	01352823          	sw	s3,16(a0)
    86b8:	04200a93          	li	s5,66
    86bc:	01552023          	sw	s5,0(a0)
    86c0:	72c000ef          	jal	8dec <wait_cmp1_loop>
    86c4:	00452283          	lw	t0,4(a0)
    86c8:	0022f293          	andi	t0,t0,2
    86cc:	c40280e3          	beqz	t0,830c <fail>
    86d0:	00048093          	mv	ra,s1
    86d4:	00008067          	ret

000086d8 <test_compare2_reset>:
    86d8:	00008493          	mv	s1,ra
    86dc:	6a8000ef          	jal	8d84 <reset_timer>
    86e0:	09600993          	li	s3,150
    86e4:	01352a23          	sw	s3,20(a0)
    86e8:	0c400a93          	li	s5,196
    86ec:	01552023          	sw	s5,0(a0)
    86f0:	70c000ef          	jal	8dfc <wait_cmp2_loop>
    86f4:	00452283          	lw	t0,4(a0)
    86f8:	0042f293          	andi	t0,t0,4
    86fc:	c00288e3          	beqz	t0,830c <fail>
    8700:	00852303          	lw	t1,8(a0)
    8704:	03200393          	li	t2,50
    8708:	c07352e3          	bge	t1,t2,830c <fail>
    870c:	00048093          	mv	ra,s1
    8710:	00008067          	ret

00008714 <test_pwm_generation>:
    8714:	00008493          	mv	s1,ra
    8718:	66c000ef          	jal	8d84 <reset_timer>
    871c:	06400993          	li	s3,100
    8720:	12c00a13          	li	s4,300
    8724:	01352623          	sw	s3,12(a0)
    8728:	01452a23          	sw	s4,20(a0)
    872c:	00004ab7          	lui	s5,0x4
    8730:	0c1a8a93          	addi	s5,s5,193 # 40c1 <_start-0x413f>
    8734:	01552023          	sw	s5,0(a0)
    8738:	6a4000ef          	jal	8ddc <wait_cmp0_loop>
    873c:	00452283          	lw	t0,4(a0)
    8740:	0402f293          	andi	t0,t0,64
    8744:	bc0294e3          	bnez	t0,830c <fail>
    8748:	6b4000ef          	jal	8dfc <wait_cmp2_loop>
    874c:	00452283          	lw	t0,4(a0)
    8750:	0402f293          	andi	t0,t0,64
    8754:	ba028ce3          	beqz	t0,830c <fail>
    8758:	00048093          	mv	ra,s1
    875c:	00008067          	ret

00008760 <test_multiple_compares>:
    8760:	00008493          	mv	s1,ra
    8764:	620000ef          	jal	8d84 <reset_timer>
    8768:	03200293          	li	t0,50
    876c:	06400313          	li	t1,100
    8770:	09600393          	li	t2,150
    8774:	00552623          	sw	t0,12(a0)
    8778:	00652823          	sw	t1,16(a0)
    877c:	00752a23          	sw	t2,20(a0)
    8780:	0c700a93          	li	s5,199
    8784:	01552023          	sw	s5,0(a0)
    8788:	654000ef          	jal	8ddc <wait_cmp0_loop>
    878c:	660000ef          	jal	8dec <wait_cmp1_loop>
    8790:	66c000ef          	jal	8dfc <wait_cmp2_loop>
    8794:	00452283          	lw	t0,4(a0)
    8798:	0012f313          	andi	t1,t0,1
    879c:	b60308e3          	beqz	t1,830c <fail>
    87a0:	0022f313          	andi	t1,t0,2
    87a4:	b60304e3          	beqz	t1,830c <fail>
    87a8:	0042f313          	andi	t1,t0,4
    87ac:	b60300e3          	beqz	t1,830c <fail>
    87b0:	00048093          	mv	ra,s1
    87b4:	00008067          	ret

000087b8 <test_compare_initial_levels>:
    87b8:	00008493          	mv	s1,ra
    87bc:	5c8000ef          	jal	8d84 <reset_timer>
    87c0:	00004ab7          	lui	s5,0x4
    87c4:	01552423          	sw	s5,8(a0)
    87c8:	00004ab7          	lui	s5,0x4
    87cc:	01552023          	sw	s5,0(a0)
    87d0:	00004ab7          	lui	s5,0x4
    87d4:	040a8a93          	addi	s5,s5,64 # 4040 <_start-0x41c0>
    87d8:	01552023          	sw	s5,0(a0)
    87dc:	00452283          	lw	t0,4(a0)
    87e0:	0402f293          	andi	t0,t0,64
    87e4:	b20284e3          	beqz	t0,830c <fail>
    87e8:	04000a93          	li	s5,64
    87ec:	01552023          	sw	s5,0(a0)
    87f0:	00452283          	lw	t0,4(a0)
    87f4:	0802f293          	andi	t0,t0,128
    87f8:	b0029ae3          	bnez	t0,830c <fail>
    87fc:	00048093          	mv	ra,s1
    8800:	00008067          	ret

00008804 <test_pwm_duty_cycles>:
    8804:	00008493          	mv	s1,ra
    8808:	00300413          	li	s0,3

0000880c <duty_cycle_loop>:
    880c:	578000ef          	jal	8d84 <reset_timer>
    8810:	0c800293          	li	t0,200
    8814:	00552a23          	sw	t0,20(a0)
    8818:	00300313          	li	t1,3
    881c:	408303b3          	sub	t2,t1,s0
    8820:	00138393          	addi	t2,t2,1 # ffff001 <_end+0xffef201>
    8824:	0c800e13          	li	t3,200
    8828:	00100e93          	li	t4,1
    882c:	00200f13          	li	t5,2
    8830:	00300f93          	li	t6,3
    8834:	01d38863          	beq	t2,t4,8844 <duty_25>
    8838:	01e38a63          	beq	t2,t5,884c <duty_50>
    883c:	01f38c63          	beq	t2,t6,8854 <duty_75>
    8840:	0200006f          	j	8860 <duty_done>

00008844 <duty_25>:
    8844:	002e5e13          	srli	t3,t3,0x2
    8848:	0180006f          	j	8860 <duty_done>

0000884c <duty_50>:
    884c:	001e5e13          	srli	t3,t3,0x1
    8850:	0100006f          	j	8860 <duty_done>

00008854 <duty_75>:
    8854:	002e5e93          	srli	t4,t3,0x2
    8858:	01de8e33          	add	t3,t4,t4
    885c:	01de0e33          	add	t3,t3,t4

00008860 <duty_done>:
    8860:	01c52623          	sw	t3,12(a0)
    8864:	00004ab7          	lui	s5,0x4
    8868:	085a8a93          	addi	s5,s5,133 # 4085 <_start-0x417b>
    886c:	01552023          	sw	s5,0(a0)
    8870:	00004ab7          	lui	s5,0x4
    8874:	0c5a8a93          	addi	s5,s5,197 # 40c5 <_start-0x413b>
    8878:	01552023          	sw	s5,0(a0)
    887c:	560000ef          	jal	8ddc <wait_cmp0_loop>
    8880:	00452283          	lw	t0,4(a0)
    8884:	0402f293          	andi	t0,t0,64
    8888:	a80292e3          	bnez	t0,830c <fail>
    888c:	570000ef          	jal	8dfc <wait_cmp2_loop>
    8890:	00452283          	lw	t0,4(a0)
    8894:	0402f293          	andi	t0,t0,64
    8898:	a6028ae3          	beqz	t0,830c <fail>
    889c:	fff40413          	addi	s0,s0,-1
    88a0:	f60416e3          	bnez	s0,880c <duty_cycle_loop>
    88a4:	00048093          	mv	ra,s1
    88a8:	00008067          	ret

000088ac <test_compare_register_updates>:
    88ac:	00008493          	mv	s1,ra
    88b0:	4d4000ef          	jal	8d84 <reset_timer>
    88b4:	06400993          	li	s3,100
    88b8:	01352623          	sw	s3,12(a0)
    88bc:	04100a93          	li	s5,65
    88c0:	01552023          	sw	s5,0(a0)
    88c4:	4e0000ef          	jal	8da4 <wait_short>
    88c8:	0c800a13          	li	s4,200
    88cc:	01452623          	sw	s4,12(a0)
    88d0:	50c000ef          	jal	8ddc <wait_cmp0_loop>
    88d4:	00852283          	lw	t0,8(a0)
    88d8:	a342cae3          	blt	t0,s4,830c <fail>
    88dc:	00048093          	mv	ra,s1
    88e0:	00008067          	ret

000088e4 <test_capture0_rising_edge>:
    88e4:	00008493          	mv	s1,ra
    88e8:	49c000ef          	jal	8d84 <reset_timer>
    88ec:	45000a93          	li	s5,1104
    88f0:	01552023          	sw	s5,0(a0)
    88f4:	4c0000ef          	jal	8db4 <wait_medium>
    88f8:	514000ef          	jal	8e0c <generate_rising_edge_cap0>
    88fc:	00452283          	lw	t0,4(a0)
    8900:	0102f293          	andi	t0,t0,16
    8904:	a00284e3          	beqz	t0,830c <fail>
    8908:	01852983          	lw	s3,24(a0)
    890c:	a00980e3          	beqz	s3,830c <fail>
    8910:	00852303          	lw	t1,8(a0)
    8914:	9e69dce3          	bge	s3,t1,830c <fail>
    8918:	00048093          	mv	ra,s1
    891c:	00008067          	ret

00008920 <test_capture0_falling_edge>:
    8920:	00008493          	mv	s1,ra
    8924:	460000ef          	jal	8d84 <reset_timer>
    8928:	00001ab7          	lui	s5,0x1
    892c:	450a8a93          	addi	s5,s5,1104 # 1450 <_start-0x6db0>
    8930:	01552023          	sw	s5,0(a0)
    8934:	480000ef          	jal	8db4 <wait_medium>
    8938:	4fc000ef          	jal	8e34 <generate_falling_edge_cap0>
    893c:	00452283          	lw	t0,4(a0)
    8940:	0102f293          	andi	t0,t0,16
    8944:	9c0284e3          	beqz	t0,830c <fail>
    8948:	01852983          	lw	s3,24(a0)
    894c:	9c0980e3          	beqz	s3,830c <fail>
    8950:	00048093          	mv	ra,s1
    8954:	00008067          	ret

00008958 <test_capture1_rising_edge>:
    8958:	00008493          	mv	s1,ra
    895c:	428000ef          	jal	8d84 <reset_timer>
    8960:	00001ab7          	lui	s5,0x1
    8964:	860a8a93          	addi	s5,s5,-1952 # 860 <_start-0x79a0>
    8968:	01552023          	sw	s5,0(a0)
    896c:	448000ef          	jal	8db4 <wait_medium>
    8970:	4ec000ef          	jal	8e5c <generate_rising_edge_cap1>
    8974:	00452283          	lw	t0,4(a0)
    8978:	0202f293          	andi	t0,t0,32
    897c:	980288e3          	beqz	t0,830c <fail>
    8980:	01c52983          	lw	s3,28(a0)
    8984:	980984e3          	beqz	s3,830c <fail>
    8988:	00048093          	mv	ra,s1
    898c:	00008067          	ret

00008990 <test_capture1_falling_edge>:
    8990:	00008493          	mv	s1,ra
    8994:	3f0000ef          	jal	8d84 <reset_timer>
    8998:	00003ab7          	lui	s5,0x3
    899c:	860a8a93          	addi	s5,s5,-1952 # 2860 <_start-0x59a0>
    89a0:	01552023          	sw	s5,0(a0)
    89a4:	410000ef          	jal	8db4 <wait_medium>
    89a8:	4e0000ef          	jal	8e88 <generate_falling_edge_cap1>
    89ac:	00452283          	lw	t0,4(a0)
    89b0:	0202f293          	andi	t0,t0,32
    89b4:	94028ce3          	beqz	t0,830c <fail>
    89b8:	00048093          	mv	ra,s1
    89bc:	00008067          	ret

000089c0 <test_multiple_captures>:
    89c0:	00008493          	mv	s1,ra
    89c4:	3c0000ef          	jal	8d84 <reset_timer>
    89c8:	00001ab7          	lui	s5,0x1
    89cc:	c70a8a93          	addi	s5,s5,-912 # c70 <_start-0x7590>
    89d0:	01552023          	sw	s5,0(a0)
    89d4:	3d0000ef          	jal	8da4 <wait_short>
    89d8:	434000ef          	jal	8e0c <generate_rising_edge_cap0>
    89dc:	01852983          	lw	s3,24(a0)
    89e0:	3c4000ef          	jal	8da4 <wait_short>
    89e4:	478000ef          	jal	8e5c <generate_rising_edge_cap1>
    89e8:	01c52a03          	lw	s4,28(a0)
    89ec:	920980e3          	beqz	s3,830c <fail>
    89f0:	900a0ee3          	beqz	s4,830c <fail>
    89f4:	9149dce3          	bge	s3,s4,830c <fail>
    89f8:	00452283          	lw	t0,4(a0)
    89fc:	0102f313          	andi	t1,t0,16
    8a00:	900306e3          	beqz	t1,830c <fail>
    8a04:	0202f313          	andi	t1,t0,32
    8a08:	900302e3          	beqz	t1,830c <fail>
    8a0c:	00048093          	mv	ra,s1
    8a10:	00008067          	ret

00008a14 <test_capture_timing>:
    8a14:	00008493          	mv	s1,ra
    8a18:	36c000ef          	jal	8d84 <reset_timer>
    8a1c:	3e800993          	li	s3,1000
    8a20:	01352a23          	sw	s3,20(a0)
    8a24:	4d000a93          	li	s5,1232
    8a28:	01552023          	sw	s5,0(a0)
    8a2c:	1f400a13          	li	s4,500

00008a30 <timing_wait>:
    8a30:	00852283          	lw	t0,8(a0)
    8a34:	ff42cee3          	blt	t0,s4,8a30 <timing_wait>
    8a38:	3d4000ef          	jal	8e0c <generate_rising_edge_cap0>
    8a3c:	01852303          	lw	t1,24(a0)
    8a40:	414303b3          	sub	t2,t1,s4
    8a44:	03200e13          	li	t3,50
    8a48:	0003c663          	bltz	t2,8a54 <check_neg_diff>
    8a4c:	8c7e40e3          	blt	t3,t2,830c <fail>
    8a50:	00c0006f          	j	8a5c <timing_ok>

00008a54 <check_neg_diff>:
    8a54:	407003b3          	neg	t2,t2
    8a58:	8a7e4ae3          	blt	t3,t2,830c <fail>

00008a5c <timing_ok>:
    8a5c:	00048093          	mv	ra,s1
    8a60:	00008067          	ret

00008a64 <test_compare0_interrupt>:
    8a64:	00008493          	mv	s1,ra
    8a68:	31c000ef          	jal	8d84 <reset_timer>
    8a6c:	04b00993          	li	s3,75
    8a70:	01352623          	sw	s3,12(a0)
    8a74:	04100a93          	li	s5,65
    8a78:	01552023          	sw	s5,0(a0)
    8a7c:	360000ef          	jal	8ddc <wait_cmp0_loop>
    8a80:	00452283          	lw	t0,4(a0)
    8a84:	0012f293          	andi	t0,t0,1
    8a88:	880282e3          	beqz	t0,830c <fail>
    8a8c:	00100313          	li	t1,1
    8a90:	00652223          	sw	t1,4(a0)
    8a94:	00452283          	lw	t0,4(a0)
    8a98:	0012f293          	andi	t0,t0,1
    8a9c:	860298e3          	bnez	t0,830c <fail>
    8aa0:	00048093          	mv	ra,s1
    8aa4:	00008067          	ret

00008aa8 <test_compare1_interrupt>:
    8aa8:	00008493          	mv	s1,ra
    8aac:	2d8000ef          	jal	8d84 <reset_timer>
    8ab0:	07d00993          	li	s3,125
    8ab4:	01352823          	sw	s3,16(a0)
    8ab8:	04200a93          	li	s5,66
    8abc:	01552023          	sw	s5,0(a0)
    8ac0:	32c000ef          	jal	8dec <wait_cmp1_loop>
    8ac4:	00452283          	lw	t0,4(a0)
    8ac8:	0022f293          	andi	t0,t0,2
    8acc:	840280e3          	beqz	t0,830c <fail>
    8ad0:	00048093          	mv	ra,s1
    8ad4:	00008067          	ret

00008ad8 <test_compare2_interrupt>:
    8ad8:	00008493          	mv	s1,ra
    8adc:	2a8000ef          	jal	8d84 <reset_timer>
    8ae0:	0af00993          	li	s3,175
    8ae4:	01352a23          	sw	s3,20(a0)
    8ae8:	0c400a93          	li	s5,196
    8aec:	01552023          	sw	s5,0(a0)
    8af0:	30c000ef          	jal	8dfc <wait_cmp2_loop>
    8af4:	00452283          	lw	t0,4(a0)
    8af8:	0042f293          	andi	t0,t0,4
    8afc:	800288e3          	beqz	t0,830c <fail>
    8b00:	00048093          	mv	ra,s1
    8b04:	00008067          	ret

00008b08 <test_overflow_interrupt>:
    8b08:	00008493          	mv	s1,ra
    8b0c:	278000ef          	jal	8d84 <reset_timer>
    8b10:	04800a93          	li	s5,72
    8b14:	01552023          	sw	s5,0(a0)
    8b18:	ff000993          	li	s3,-16
    8b1c:	01352423          	sw	s3,8(a0)
    8b20:	294000ef          	jal	8db4 <wait_medium>
    8b24:	00452283          	lw	t0,4(a0)
    8b28:	0082f293          	andi	t0,t0,8
    8b2c:	fe028063          	beqz	t0,830c <fail>
    8b30:	00048093          	mv	ra,s1
    8b34:	00008067          	ret

00008b38 <test_capture_interrupts>:
    8b38:	00008493          	mv	s1,ra
    8b3c:	248000ef          	jal	8d84 <reset_timer>
    8b40:	45000a93          	li	s5,1104
    8b44:	01552023          	sw	s5,0(a0)
    8b48:	25c000ef          	jal	8da4 <wait_short>
    8b4c:	2c0000ef          	jal	8e0c <generate_rising_edge_cap0>
    8b50:	00452283          	lw	t0,4(a0)
    8b54:	0102f293          	andi	t0,t0,16
    8b58:	fa028a63          	beqz	t0,830c <fail>
    8b5c:	00048093          	mv	ra,s1
    8b60:	00008067          	ret

00008b64 <test_interrupt_enable_disable>:
    8b64:	00008493          	mv	s1,ra
    8b68:	21c000ef          	jal	8d84 <reset_timer>
    8b6c:	06400993          	li	s3,100
    8b70:	01352623          	sw	s3,12(a0)
    8b74:	04000a93          	li	s5,64
    8b78:	01552023          	sw	s5,0(a0)
    8b7c:	260000ef          	jal	8ddc <wait_cmp0_loop>
    8b80:	00452283          	lw	t0,4(a0)
    8b84:	0012f293          	andi	t0,t0,1
    8b88:	f8028263          	beqz	t0,830c <fail>
    8b8c:	00048093          	mv	ra,s1
    8b90:	00008067          	ret

00008b94 <test_multiple_interrupt_flags>:
    8b94:	00008493          	mv	s1,ra
    8b98:	1ec000ef          	jal	8d84 <reset_timer>
    8b9c:	03200293          	li	t0,50
    8ba0:	06400313          	li	t1,100
    8ba4:	00552623          	sw	t0,12(a0)
    8ba8:	00652823          	sw	t1,16(a0)
    8bac:	04300a93          	li	s5,67
    8bb0:	01552023          	sw	s5,0(a0)
    8bb4:	238000ef          	jal	8dec <wait_cmp1_loop>
    8bb8:	00452283          	lw	t0,4(a0)
    8bbc:	0012f313          	andi	t1,t0,1
    8bc0:	f4030663          	beqz	t1,830c <fail>
    8bc4:	0022f313          	andi	t1,t0,2
    8bc8:	f4030263          	beqz	t1,830c <fail>
    8bcc:	00048093          	mv	ra,s1
    8bd0:	00008067          	ret

00008bd4 <test_interrupt_flag_clearing>:
    8bd4:	00008493          	mv	s1,ra
    8bd8:	1ac000ef          	jal	8d84 <reset_timer>
    8bdc:	03c00293          	li	t0,60
    8be0:	07800313          	li	t1,120
    8be4:	00552623          	sw	t0,12(a0)
    8be8:	00652823          	sw	t1,16(a0)
    8bec:	04300a93          	li	s5,67
    8bf0:	01552023          	sw	s5,0(a0)
    8bf4:	1f8000ef          	jal	8dec <wait_cmp1_loop>
    8bf8:	00100393          	li	t2,1
    8bfc:	00752223          	sw	t2,4(a0)
    8c00:	00452283          	lw	t0,4(a0)
    8c04:	0012f313          	andi	t1,t0,1
    8c08:	f0031263          	bnez	t1,830c <fail>
    8c0c:	0022f313          	andi	t1,t0,2
    8c10:	ee030e63          	beqz	t1,830c <fail>
    8c14:	00048093          	mv	ra,s1
    8c18:	00008067          	ret

00008c1c <test_clock_source_selection>:
    8c1c:	00008493          	mv	s1,ra
    8c20:	00400413          	li	s0,4

00008c24 <clock_source_loop>:
    8c24:	160000ef          	jal	8d84 <reset_timer>
    8c28:	00400293          	li	t0,4
    8c2c:	40828333          	sub	t1,t0,s0
    8c30:	00831393          	slli	t2,t1,0x8
    8c34:	00752023          	sw	t2,0(a0)
    8c38:	16c000ef          	jal	8da4 <wait_short>
    8c3c:	0403ea93          	ori	s5,t2,64
    8c40:	01552023          	sw	s5,0(a0)
    8c44:	160000ef          	jal	8da4 <wait_short>
    8c48:	00852e03          	lw	t3,8(a0)
    8c4c:	ec0e0063          	beqz	t3,830c <fail>
    8c50:	fff40413          	addi	s0,s0,-1
    8c54:	fc0418e3          	bnez	s0,8c24 <clock_source_loop>
    8c58:	00048093          	mv	ra,s1
    8c5c:	00008067          	ret

00008c60 <test_clock_divider_functionality>:
    8c60:	00008493          	mv	s1,ra
    8c64:	120000ef          	jal	8d84 <reset_timer>
    8c68:	14000a93          	li	s5,320
    8c6c:	01552023          	sw	s5,0(a0)
    8c70:	134000ef          	jal	8da4 <wait_short>
    8c74:	00852983          	lw	s3,8(a0)
    8c78:	10c000ef          	jal	8d84 <reset_timer>
    8c7c:	00040ab7          	lui	s5,0x40
    8c80:	140a8a93          	addi	s5,s5,320 # 40140 <_end+0x30340>
    8c84:	01552023          	sw	s5,0(a0)
    8c88:	11c000ef          	jal	8da4 <wait_short>
    8c8c:	00852a03          	lw	s4,8(a0)
    8c90:	e73a5e63          	bge	s4,s3,830c <fail>
    8c94:	00048093          	mv	ra,s1
    8c98:	00008067          	ret

00008c9c <test_divider_ratios>:
    8c9c:	00008493          	mv	s1,ra
    8ca0:	00600413          	li	s0,6

00008ca4 <divider_loop>:
    8ca4:	0e0000ef          	jal	8d84 <reset_timer>
    8ca8:	00600293          	li	t0,6
    8cac:	40828333          	sub	t1,t0,s0
    8cb0:	01031393          	slli	t2,t1,0x10
    8cb4:	1403ea93          	ori	s5,t2,320
    8cb8:	01552023          	sw	s5,0(a0)
    8cbc:	0e8000ef          	jal	8da4 <wait_short>
    8cc0:	00852e03          	lw	t3,8(a0)
    8cc4:	e40e0463          	beqz	t3,830c <fail>
    8cc8:	fff40413          	addi	s0,s0,-1
    8ccc:	fc041ce3          	bnez	s0,8ca4 <divider_loop>
    8cd0:	00048093          	mv	ra,s1
    8cd4:	00008067          	ret

00008cd8 <test_clock_source_switching>:
    8cd8:	00008493          	mv	s1,ra
    8cdc:	0a8000ef          	jal	8d84 <reset_timer>
    8ce0:	14000a93          	li	s5,320
    8ce4:	01552023          	sw	s5,0(a0)
    8ce8:	0bc000ef          	jal	8da4 <wait_short>
    8cec:	00852983          	lw	s3,8(a0)
    8cf0:	04000a93          	li	s5,64
    8cf4:	01552023          	sw	s5,0(a0)
    8cf8:	0ac000ef          	jal	8da4 <wait_short>
    8cfc:	00852a03          	lw	s4,8(a0)
    8d00:	e149d663          	bge	s3,s4,830c <fail>
    8d04:	00048093          	mv	ra,s1
    8d08:	00008067          	ret

00008d0c <test_timer_frequency>:
    8d0c:	00008493          	mv	s1,ra
    8d10:	074000ef          	jal	8d84 <reset_timer>
    8d14:	3e800993          	li	s3,1000
    8d18:	01352623          	sw	s3,12(a0)
    8d1c:	14100a93          	li	s5,321
    8d20:	01552023          	sw	s5,0(a0)
    8d24:	00000a13          	li	s4,0

00008d28 <freq_wait>:
    8d28:	00452283          	lw	t0,4(a0)
    8d2c:	0012f293          	andi	t0,t0,1
    8d30:	00029c63          	bnez	t0,8d48 <freq_done>
    8d34:	001a0a13          	addi	s4,s4,1
    8d38:	00018337          	lui	t1,0x18
    8d3c:	6a030313          	addi	t1,t1,1696 # 186a0 <_end+0x88a0>
    8d40:	fe6a44e3          	blt	s4,t1,8d28 <freq_wait>
    8d44:	dc8ff06f          	j	830c <fail>

00008d48 <freq_done>:
    8d48:	0000c3b7          	lui	t2,0xc
    8d4c:	35038393          	addi	t2,t2,848 # c350 <isr_timer0+0x349c>
    8d50:	db43ce63          	blt	t2,s4,830c <fail>
    8d54:	00048093          	mv	ra,s1
    8d58:	00008067          	ret

00008d5c <init_gpio_timer>:
    8d5c:	0ff00293          	li	t0,255
    8d60:	02562223          	sw	t0,36(a2)
    8d64:	00062a23          	sw	zero,20(a2)
    8d68:	00062223          	sw	zero,4(a2)
    8d6c:	00008067          	ret

00008d70 <init_gpio_interrogator>:
    8d70:	0ff00293          	li	t0,255
    8d74:	0205a223          	sw	zero,36(a1)
    8d78:	0055aa23          	sw	t0,20(a1)
    8d7c:	0005a223          	sw	zero,4(a1)
    8d80:	00008067          	ret

00008d84 <reset_timer>:
    8d84:	00052023          	sw	zero,0(a0)
    8d88:	00052423          	sw	zero,8(a0)
    8d8c:	00052623          	sw	zero,12(a0)
    8d90:	00052823          	sw	zero,16(a0)
    8d94:	00052a23          	sw	zero,20(a0)
    8d98:	0ff00293          	li	t0,255
    8d9c:	00552223          	sw	t0,4(a0)
    8da0:	00008067          	ret

00008da4 <wait_short>:
    8da4:	3e800293          	li	t0,1000

00008da8 <wait_short_loop>:
    8da8:	fff28293          	addi	t0,t0,-1
    8dac:	fe029ee3          	bnez	t0,8da8 <wait_short_loop>
    8db0:	00008067          	ret

00008db4 <wait_medium>:
    8db4:	000022b7          	lui	t0,0x2
    8db8:	71028293          	addi	t0,t0,1808 # 2710 <_start-0x5af0>

00008dbc <wait_medium_loop>:
    8dbc:	fff28293          	addi	t0,t0,-1
    8dc0:	fe029ee3          	bnez	t0,8dbc <wait_medium_loop>
    8dc4:	00008067          	ret

00008dc8 <wait_long>:
    8dc8:	000182b7          	lui	t0,0x18
    8dcc:	6a028293          	addi	t0,t0,1696 # 186a0 <_end+0x88a0>

00008dd0 <wait_long_loop>:
    8dd0:	fff28293          	addi	t0,t0,-1
    8dd4:	fe029ee3          	bnez	t0,8dd0 <wait_long_loop>
    8dd8:	00008067          	ret

00008ddc <wait_cmp0_loop>:
    8ddc:	00452283          	lw	t0,4(a0)
    8de0:	0012f293          	andi	t0,t0,1
    8de4:	fe028ce3          	beqz	t0,8ddc <wait_cmp0_loop>
    8de8:	00008067          	ret

00008dec <wait_cmp1_loop>:
    8dec:	00452283          	lw	t0,4(a0)
    8df0:	0022f293          	andi	t0,t0,2
    8df4:	fe028ce3          	beqz	t0,8dec <wait_cmp1_loop>
    8df8:	00008067          	ret

00008dfc <wait_cmp2_loop>:
    8dfc:	00452283          	lw	t0,4(a0)
    8e00:	0042f293          	andi	t0,t0,4
    8e04:	fe028ce3          	beqz	t0,8dfc <wait_cmp2_loop>
    8e08:	00008067          	ret

00008e0c <generate_rising_edge_cap0>:
    8e0c:	00048913          	mv	s2,s1
    8e10:	00008493          	mv	s1,ra
    8e14:	0005a223          	sw	zero,4(a1)
    8e18:	f8dff0ef          	jal	8da4 <wait_short>
    8e1c:	04400293          	li	t0,68
    8e20:	0055a223          	sw	t0,4(a1)
    8e24:	f81ff0ef          	jal	8da4 <wait_short>
    8e28:	00048093          	mv	ra,s1
    8e2c:	00090493          	mv	s1,s2
    8e30:	00008067          	ret

00008e34 <generate_falling_edge_cap0>:
    8e34:	00048913          	mv	s2,s1
    8e38:	00008493          	mv	s1,ra
    8e3c:	04400293          	li	t0,68
    8e40:	0055a223          	sw	t0,4(a1)
    8e44:	f61ff0ef          	jal	8da4 <wait_short>
    8e48:	0005a223          	sw	zero,4(a1)
    8e4c:	f59ff0ef          	jal	8da4 <wait_short>
    8e50:	00048093          	mv	ra,s1
    8e54:	00090493          	mv	s1,s2
    8e58:	00008067          	ret

00008e5c <generate_rising_edge_cap1>:
    8e5c:	00048913          	mv	s2,s1
    8e60:	00008493          	mv	s1,ra
    8e64:	08800293          	li	t0,136
    8e68:	0055a623          	sw	t0,12(a1)
    8e6c:	f39ff0ef          	jal	8da4 <wait_short>
    8e70:	08800293          	li	t0,136
    8e74:	0055a223          	sw	t0,4(a1)
    8e78:	f2dff0ef          	jal	8da4 <wait_short>
    8e7c:	00048093          	mv	ra,s1
    8e80:	00090493          	mv	s1,s2
    8e84:	00008067          	ret

00008e88 <generate_falling_edge_cap1>:
    8e88:	00048913          	mv	s2,s1
    8e8c:	00008493          	mv	s1,ra
    8e90:	08800293          	li	t0,136
    8e94:	0055a223          	sw	t0,4(a1)
    8e98:	f0dff0ef          	jal	8da4 <wait_short>
    8e9c:	08800293          	li	t0,136
    8ea0:	0055a623          	sw	t0,12(a1)
    8ea4:	f01ff0ef          	jal	8da4 <wait_short>
    8ea8:	00048093          	mv	ra,s1
    8eac:	00090493          	mv	s1,s2
    8eb0:	00008067          	ret
