
periph-p-UART:     file format elf32-littleriscv


Disassembly of section .ivt:

00008000 <.ivt>:
    8000:	a01fd06f          	j	5a00 <_start-0x2800>
    8004:	bfdfd06f          	j	5c00 <_start-0x2600>
    8008:	df9fd06f          	j	5e00 <_start-0x2400>
    800c:	ff5fd06f          	j	6000 <_start-0x2200>
    8010:	9f0fe06f          	j	6200 <_start-0x2000>
    8014:	becfe06f          	j	6400 <_start-0x1e00>
    8018:	de8fe06f          	j	6600 <_start-0x1c00>
    801c:	fe4fe06f          	j	6800 <_start-0x1a00>
    8020:	9e1fe06f          	j	6a00 <_start-0x1800>
    8024:	3dd0706f          	j	fc00 <isr_uart0_te+0x600>
    8028:	5d90706f          	j	fe00 <_end>
    802c:	fd5fe06f          	j	7000 <_start-0x1200>
    8030:	9d0ff06f          	j	7200 <_start-0x1000>
    8034:	3cc0706f          	j	f400 <isr_uart0_rc>
    8038:	5c80706f          	j	f600 <isr_uart0_te>
    803c:	7c40706f          	j	f800 <isr_uart0_te+0x200>
    8040:	9c1ff06f          	j	7a00 <_start-0x800>
    8044:	bbdff06f          	j	7c00 <_start-0x600>
    8048:	db9ff06f          	j	7e00 <_start-0x400>
    804c:	fb5ff06f          	j	8000 <_start-0x200>
    8050:	1b00006f          	j	8200 <_start>
    8054:	3ac0006f          	j	8400 <interrupt_flag_tests+0x44>
    8058:	5a80006f          	j	8600 <test_bidirectional+0x18>
    805c:	7a40006f          	j	8800 <test_multiple_flags+0x3c>
    8060:	1a10006f          	j	8a00 <wait_tx_complete+0x80>
    8064:	39d0006f          	j	8c00 <wait_tx_complete+0x280>
    8068:	5990006f          	j	8e00 <wait_tx_complete+0x480>
    806c:	7950006f          	j	9000 <wait_tx_complete+0x680>
    8070:	1900106f          	j	9200 <wait_tx_complete+0x880>
    8074:	38c0106f          	j	9400 <wait_tx_complete+0xa80>
    8078:	5880106f          	j	9600 <wait_tx_complete+0xc80>
    807c:	7840106f          	j	9800 <wait_tx_complete+0xe80>
    8080:	1810106f          	j	9a00 <wait_tx_complete+0x1080>
    8084:	37d0106f          	j	9c00 <wait_tx_complete+0x1280>
    8088:	5790106f          	j	9e00 <wait_tx_complete+0x1480>
    808c:	7750106f          	j	a000 <wait_tx_complete+0x1680>
    8090:	1700206f          	j	a200 <wait_tx_complete+0x1880>
    8094:	36c0206f          	j	a400 <wait_tx_complete+0x1a80>
    8098:	5680206f          	j	a600 <wait_tx_complete+0x1c80>
    809c:	7640206f          	j	a800 <wait_tx_complete+0x1e80>
    80a0:	1610206f          	j	aa00 <wait_tx_complete+0x2080>
    80a4:	35d0206f          	j	ac00 <wait_tx_complete+0x2280>
    80a8:	5590206f          	j	ae00 <wait_tx_complete+0x2480>
    80ac:	7550206f          	j	b000 <wait_tx_complete+0x2680>
    80b0:	1500306f          	j	b200 <wait_tx_complete+0x2880>
    80b4:	34c0306f          	j	b400 <wait_tx_complete+0x2a80>
    80b8:	5480306f          	j	b600 <wait_tx_complete+0x2c80>
    80bc:	7440306f          	j	b800 <wait_tx_complete+0x2e80>
    80c0:	1410306f          	j	ba00 <wait_tx_complete+0x3080>
    80c4:	33d0306f          	j	bc00 <wait_tx_complete+0x3280>
    80c8:	5390306f          	j	be00 <wait_tx_complete+0x3480>
    80cc:	7350306f          	j	c000 <wait_tx_complete+0x3680>
    80d0:	4310606f          	j	ed00 <wait_tx_complete+0x6380>
    80d4:	72d0606f          	j	f000 <wait_tx_complete+0x6680>
    80d8:	1280706f          	j	f200 <wait_tx_complete+0x6880>
    80dc:	7240406f          	j	c800 <wait_tx_complete+0x3e80>
    80e0:	1210406f          	j	ca00 <wait_tx_complete+0x4080>
    80e4:	31d0406f          	j	cc00 <wait_tx_complete+0x4280>
    80e8:	5190406f          	j	ce00 <wait_tx_complete+0x4480>
    80ec:	7150406f          	j	d000 <wait_tx_complete+0x4680>
    80f0:	1100506f          	j	d200 <wait_tx_complete+0x4880>
    80f4:	30c0506f          	j	d400 <wait_tx_complete+0x4a80>
    80f8:	5080506f          	j	d600 <wait_tx_complete+0x4c80>
    80fc:	7040506f          	j	d800 <wait_tx_complete+0x4e80>
    8100:	1010506f          	j	da00 <wait_tx_complete+0x5080>
    8104:	2fd0506f          	j	dc00 <wait_tx_complete+0x5280>
    8108:	4f90506f          	j	de00 <wait_tx_complete+0x5480>
    810c:	6f50506f          	j	e000 <wait_tx_complete+0x5680>
    8110:	0f00606f          	j	e200 <wait_tx_complete+0x5880>
    8114:	2ec0606f          	j	e400 <wait_tx_complete+0x5a80>
    8118:	4e80606f          	j	e600 <wait_tx_complete+0x5c80>
    811c:	6e40606f          	j	e800 <wait_tx_complete+0x5e80>
    8120:	0e10606f          	j	ea00 <wait_tx_complete+0x6080>
    8124:	2dd0606f          	j	ec00 <wait_tx_complete+0x6280>
    8128:	4d90606f          	j	ee00 <wait_tx_complete+0x6480>
    812c:	6d50606f          	j	f000 <wait_tx_complete+0x6680>
    8130:	0d00706f          	j	f200 <wait_tx_complete+0x6880>
    8134:	2cc0706f          	j	f400 <isr_uart0_rc>
    8138:	4c80706f          	j	f600 <isr_uart0_te>
    813c:	6c40706f          	j	f800 <isr_uart0_te+0x200>
    8140:	0c10706f          	j	fa00 <isr_uart0_te+0x400>
    8144:	2bd0706f          	j	fc00 <isr_uart0_te+0x600>
    8148:	4b90706f          	j	fe00 <_end>

Disassembly of section .text.init:

00008200 <_start>:
    8200:	0040006f          	j	8204 <reset_vector>

00008204 <reset_vector>:
    8204:	00000093          	li	ra,0
    8208:	00000113          	li	sp,0
    820c:	00000193          	li	gp,0
    8210:	00000213          	li	tp,0
    8214:	00000293          	li	t0,0
    8218:	00000313          	li	t1,0
    821c:	00000393          	li	t2,0
    8220:	00000413          	li	s0,0
    8224:	00000493          	li	s1,0
    8228:	00000513          	li	a0,0
    822c:	00000593          	li	a1,0
    8230:	00000613          	li	a2,0
    8234:	00000693          	li	a3,0
    8238:	00000713          	li	a4,0
    823c:	00000793          	li	a5,0
    8240:	00000813          	li	a6,0
    8244:	00000893          	li	a7,0
    8248:	00000913          	li	s2,0
    824c:	00000993          	li	s3,0
    8250:	00000a13          	li	s4,0
    8254:	00000a93          	li	s5,0
    8258:	00000b13          	li	s6,0
    825c:	00000b93          	li	s7,0
    8260:	00000c13          	li	s8,0
    8264:	00000c93          	li	s9,0
    8268:	00000d13          	li	s10,0
    826c:	00000d93          	li	s11,0
    8270:	00000e13          	li	t3,0
    8274:	00000e93          	li	t4,0
    8278:	00000f13          	li	t5,0
    827c:	00000f93          	li	t6,0
    8280:	00000193          	li	gp,0
    8284:	00000297          	auipc	t0,0x0
    8288:	00c28293          	addi	t0,t0,12 # 8290 <system_init>
    828c:	00028067          	jr	t0

00008290 <system_init>:
    8290:	00005537          	lui	a0,0x5
    8294:	90050513          	addi	a0,a0,-1792 # 4900 <_start-0x3900>
    8298:	00052023          	sw	zero,0(a0)
    829c:	00000513          	li	a0,0

000082a0 <uart_basic_test_start>:
    82a0:	00004637          	lui	a2,0x4
    82a4:	10060613          	addi	a2,a2,256 # 4100 <_start-0x4100>
    82a8:	00000193          	li	gp,0
    82ac:	69c000ef          	jal	8948 <init_gpio_uart>
    82b0:	00000c13          	li	s8,0

000082b4 <uart_swap_loop>:
    82b4:	00052023          	sw	zero,0(a0)
    82b8:	0005a023          	sw	zero,0(a1)
    82bc:	020c0063          	beqz	s8,82dc <no_swap>
    82c0:	000042b7          	lui	t0,0x4
    82c4:	40028293          	addi	t0,t0,1024 # 4400 <_start-0x3e00>
    82c8:	00004337          	lui	t1,0x4
    82cc:	50030313          	addi	t1,t1,1280 # 4500 <_start-0x3d00>
    82d0:	00030513          	mv	a0,t1
    82d4:	00028593          	mv	a1,t0
    82d8:	0140006f          	j	82ec <start_baud_tests>

000082dc <no_swap>:
    82dc:	00004537          	lui	a0,0x4
    82e0:	40050513          	addi	a0,a0,1024 # 4400 <_start-0x3e00>
    82e4:	000045b7          	lui	a1,0x4
    82e8:	50058593          	addi	a1,a1,1280 # 4500 <_start-0x3d00>

000082ec <start_baud_tests>:
    82ec:	00000413          	li	s0,0

000082f0 <baud_rate_loop>:
    82f0:	050000ef          	jal	8340 <set_current_baud_rate>
    82f4:	01652423          	sw	s6,8(a0)
    82f8:	0165a423          	sw	s6,8(a1)
    82fc:	078000ef          	jal	8374 <basic_communication_tests>
    8300:	0bc000ef          	jal	83bc <interrupt_flag_tests>
    8304:	00140413          	addi	s0,s0,1
    8308:	00300293          	li	t0,3
    830c:	fe5442e3          	blt	s0,t0,82f0 <baud_rate_loop>
    8310:	001c0c13          	addi	s8,s8,1
    8314:	00200293          	li	t0,2
    8318:	f85c4ee3          	blt	s8,t0,82b4 <uart_swap_loop>

0000831c <all_tests_passed>:
    831c:	00301a63          	bne	zero,gp,8330 <pass>

00008320 <fail>:
    8320:	deadc537          	lui	a0,0xdeadc
    8324:	eef50513          	addi	a0,a0,-273 # deadbeef <_end+0xdeacc0ef>
    8328:	0040006f          	j	832c <_fail_label>

0000832c <_fail_label>:
    832c:	0000006f          	j	832c <_fail_label>

00008330 <pass>:
    8330:	cafec537          	lui	a0,0xcafec
    8334:	abe50513          	addi	a0,a0,-1346 # cafebabe <_end+0xcafdbcbe>
    8338:	0040006f          	j	833c <_pass_label>

0000833c <_pass_label>:
    833c:	0000006f          	j	833c <_pass_label>

00008340 <set_current_baud_rate>:
    8340:	00000313          	li	t1,0
    8344:	00640c63          	beq	s0,t1,835c <use_high_baud>
    8348:	00100313          	li	t1,1
    834c:	00640c63          	beq	s0,t1,8364 <use_medium_baud>
    8350:	00200313          	li	t1,2
    8354:	00640c63          	beq	s0,t1,836c <use_low_baud>
    8358:	00c0006f          	j	8364 <use_medium_baud>

0000835c <use_high_baud>:
    835c:	00100b13          	li	s6,1
    8360:	00008067          	ret

00008364 <use_medium_baud>:
    8364:	04d00b13          	li	s6,77
    8368:	00008067          	ret

0000836c <use_low_baud>:
    836c:	0ff00b13          	li	s6,255
    8370:	00008067          	ret

00008374 <basic_communication_tests>:
    8374:	00008913          	mv	s2,ra
    8378:	00118193          	addi	gp,gp,1
    837c:	08c000ef          	jal	8408 <test_simple_tx_rx>
    8380:	00118193          	addi	gp,gp,1
    8384:	0c8000ef          	jal	844c <test_reverse_tx_rx>
    8388:	00118193          	addi	gp,gp,1
    838c:	0e8000ef          	jal	8474 <test_even_parity_comm>
    8390:	00118193          	addi	gp,gp,1
    8394:	130000ef          	jal	84c4 <test_odd_parity_comm>
    8398:	00118193          	addi	gp,gp,1
    839c:	00118193          	addi	gp,gp,1
    83a0:	1d0000ef          	jal	8570 <test_data_patterns>
    83a4:	00118193          	addi	gp,gp,1
    83a8:	240000ef          	jal	85e8 <test_bidirectional>
    83ac:	00118193          	addi	gp,gp,1
    83b0:	290000ef          	jal	8640 <test_enable_disable>
    83b4:	00090093          	mv	ra,s2
    83b8:	00008067          	ret

000083bc <interrupt_flag_tests>:
    83bc:	00008913          	mv	s2,ra
    83c0:	00118193          	addi	gp,gp,1
    83c4:	2e0000ef          	jal	86a4 <test_tx_complete_flag>
    83c8:	00118193          	addi	gp,gp,1
    83cc:	324000ef          	jal	86f0 <test_tx_empty_flag>
    83d0:	00118193          	addi	gp,gp,1
    83d4:	360000ef          	jal	8734 <test_rx_complete_flag>
    83d8:	00118193          	addi	gp,gp,1
    83dc:	3ac000ef          	jal	8788 <test_flag_clearing>
    83e0:	00118193          	addi	gp,gp,1
    83e4:	3e0000ef          	jal	87c4 <test_multiple_flags>
    83e8:	00118193          	addi	gp,gp,1
    83ec:	440000ef          	jal	882c <test_interrupt_enable>
    83f0:	00118193          	addi	gp,gp,1
    83f4:	490000ef          	jal	8884 <test_continuous_flags>
    83f8:	00118193          	addi	gp,gp,1
    83fc:	4e4000ef          	jal	88e0 <test_flag_timing>
    8400:	00090093          	mv	ra,s2
    8404:	00008067          	ret

00008408 <test_simple_tx_rx>:
    8408:	00008493          	mv	s1,ra
    840c:	02700a93          	li	s5,39
    8410:	01552023          	sw	s5,0(a0)
    8414:	0155a023          	sw	s5,0(a1)
    8418:	00050693          	mv	a3,a0
    841c:	538000ef          	jal	8954 <clear_uart_interrupts>
    8420:	00058693          	mv	a3,a1
    8424:	530000ef          	jal	8954 <clear_uart_interrupts>
    8428:	0a500993          	li	s3,165
    842c:	01352823          	sw	s3,16(a0)
    8430:	00058713          	mv	a4,a1
    8434:	52c000ef          	jal	8960 <wait_rx_complete>
    8438:	00c5a303          	lw	t1,12(a1)
    843c:	ee6992e3          	bne	s3,t1,8320 <fail>
    8440:	00c5a303          	lw	t1,12(a1)
    8444:	00048093          	mv	ra,s1
    8448:	00008067          	ret

0000844c <test_reverse_tx_rx>:
    844c:	00008493          	mv	s1,ra
    8450:	05a00993          	li	s3,90
    8454:	0135a823          	sw	s3,16(a1)
    8458:	00050713          	mv	a4,a0
    845c:	504000ef          	jal	8960 <wait_rx_complete>
    8460:	00c52303          	lw	t1,12(a0)
    8464:	ea699ee3          	bne	s3,t1,8320 <fail>
    8468:	00c52303          	lw	t1,12(a0)
    846c:	00048093          	mv	ra,s1
    8470:	00008067          	ret

00008474 <test_even_parity_comm>:
    8474:	00008493          	mv	s1,ra
    8478:	03700a93          	li	s5,55
    847c:	01552023          	sw	s5,0(a0)
    8480:	0155a023          	sw	s5,0(a1)
    8484:	00050693          	mv	a3,a0
    8488:	4cc000ef          	jal	8954 <clear_uart_interrupts>
    848c:	00058693          	mv	a3,a1
    8490:	4c4000ef          	jal	8954 <clear_uart_interrupts>
    8494:	03300993          	li	s3,51
    8498:	01352823          	sw	s3,16(a0)
    849c:	00058713          	mv	a4,a1
    84a0:	4c0000ef          	jal	8960 <wait_rx_complete>
    84a4:	00c5a303          	lw	t1,12(a1)
    84a8:	e6699ce3          	bne	s3,t1,8320 <fail>
    84ac:	0045a383          	lw	t2,4(a1)
    84b0:	0103f393          	andi	t2,t2,16
    84b4:	e60396e3          	bnez	t2,8320 <fail>
    84b8:	00c5a303          	lw	t1,12(a1)
    84bc:	00048093          	mv	ra,s1
    84c0:	00008067          	ret

000084c4 <test_odd_parity_comm>:
    84c4:	00008493          	mv	s1,ra
    84c8:	03f00a93          	li	s5,63
    84cc:	01552023          	sw	s5,0(a0)
    84d0:	0155a023          	sw	s5,0(a1)
    84d4:	00050693          	mv	a3,a0
    84d8:	47c000ef          	jal	8954 <clear_uart_interrupts>
    84dc:	00058693          	mv	a3,a1
    84e0:	474000ef          	jal	8954 <clear_uart_interrupts>
    84e4:	00700993          	li	s3,7
    84e8:	01352823          	sw	s3,16(a0)
    84ec:	00058713          	mv	a4,a1
    84f0:	470000ef          	jal	8960 <wait_rx_complete>
    84f4:	00c5a303          	lw	t1,12(a1)
    84f8:	e26994e3          	bne	s3,t1,8320 <fail>
    84fc:	0045a383          	lw	t2,4(a1)
    8500:	0103f393          	andi	t2,t2,16
    8504:	e0039ee3          	bnez	t2,8320 <fail>
    8508:	00c5a303          	lw	t1,12(a1)
    850c:	00048093          	mv	ra,s1
    8510:	00008067          	ret

00008514 <test_back_to_back>:
    8514:	00008493          	mv	s1,ra
    8518:	02700a93          	li	s5,39
    851c:	01552023          	sw	s5,0(a0)
    8520:	0155a023          	sw	s5,0(a1)
    8524:	00050693          	mv	a3,a0
    8528:	42c000ef          	jal	8954 <clear_uart_interrupts>
    852c:	00058693          	mv	a3,a1
    8530:	424000ef          	jal	8954 <clear_uart_interrupts>
    8534:	01100993          	li	s3,17
    8538:	02200a13          	li	s4,34
    853c:	01352823          	sw	s3,16(a0)
    8540:	00050713          	mv	a4,a0
    8544:	42c000ef          	jal	8970 <wait_tx_ready>
    8548:	00050693          	mv	a3,a0
    854c:	408000ef          	jal	8954 <clear_uart_interrupts>
    8550:	01452823          	sw	s4,16(a0)
    8554:	42c000ef          	jal	8980 <wait_tx_complete>
    8558:	00058713          	mv	a4,a1
    855c:	404000ef          	jal	8960 <wait_rx_complete>
    8560:	00c5a383          	lw	t2,12(a1)
    8564:	da7a1ee3          	bne	s4,t2,8320 <fail>
    8568:	00048093          	mv	ra,s1
    856c:	00008067          	ret

00008570 <test_data_patterns>:
    8570:	00008493          	mv	s1,ra
    8574:	02700a93          	li	s5,39
    8578:	01552023          	sw	s5,0(a0)
    857c:	0155a023          	sw	s5,0(a1)
    8580:	00000993          	li	s3,0
    8584:	030000ef          	jal	85b4 <test_single_pattern>
    8588:	00118193          	addi	gp,gp,1
    858c:	0ff00993          	li	s3,255
    8590:	024000ef          	jal	85b4 <test_single_pattern>
    8594:	00118193          	addi	gp,gp,1
    8598:	05500993          	li	s3,85
    859c:	018000ef          	jal	85b4 <test_single_pattern>
    85a0:	00118193          	addi	gp,gp,1
    85a4:	0aa00993          	li	s3,170
    85a8:	00c000ef          	jal	85b4 <test_single_pattern>
    85ac:	00048093          	mv	ra,s1
    85b0:	00008067          	ret

000085b4 <test_single_pattern>:
    85b4:	00008b93          	mv	s7,ra
    85b8:	00050693          	mv	a3,a0
    85bc:	398000ef          	jal	8954 <clear_uart_interrupts>
    85c0:	00058693          	mv	a3,a1
    85c4:	390000ef          	jal	8954 <clear_uart_interrupts>
    85c8:	01352823          	sw	s3,16(a0)
    85cc:	00058713          	mv	a4,a1
    85d0:	390000ef          	jal	8960 <wait_rx_complete>
    85d4:	00c5a303          	lw	t1,12(a1)
    85d8:	d46994e3          	bne	s3,t1,8320 <fail>
    85dc:	00c5a303          	lw	t1,12(a1)
    85e0:	000b8093          	mv	ra,s7
    85e4:	00008067          	ret

000085e8 <test_bidirectional>:
    85e8:	00008493          	mv	s1,ra
    85ec:	02700a93          	li	s5,39
    85f0:	01552023          	sw	s5,0(a0)
    85f4:	0155a023          	sw	s5,0(a1)
    85f8:	00050693          	mv	a3,a0
    85fc:	358000ef          	jal	8954 <clear_uart_interrupts>
    8600:	00058693          	mv	a3,a1
    8604:	350000ef          	jal	8954 <clear_uart_interrupts>
    8608:	01200993          	li	s3,18
    860c:	03400a13          	li	s4,52
    8610:	01352823          	sw	s3,16(a0)
    8614:	0145a823          	sw	s4,16(a1)
    8618:	00058713          	mv	a4,a1
    861c:	344000ef          	jal	8960 <wait_rx_complete>
    8620:	00050713          	mv	a4,a0
    8624:	33c000ef          	jal	8960 <wait_rx_complete>
    8628:	00c5a383          	lw	t2,12(a1)
    862c:	ce799ae3          	bne	s3,t2,8320 <fail>
    8630:	00c52383          	lw	t2,12(a0)
    8634:	ce7a16e3          	bne	s4,t2,8320 <fail>
    8638:	00048093          	mv	ra,s1
    863c:	00008067          	ret

00008640 <test_enable_disable>:
    8640:	00008493          	mv	s1,ra
    8644:	02700a93          	li	s5,39
    8648:	07700993          	li	s3,119
    864c:	01552023          	sw	s5,0(a0)
    8650:	0155a023          	sw	s5,0(a1)
    8654:	00000293          	li	t0,0
    8658:	0055a023          	sw	t0,0(a1)
    865c:	09900293          	li	t0,153
    8660:	00552823          	sw	t0,16(a0)
    8664:	0000c337          	lui	t1,0xc
    8668:	35030313          	addi	t1,t1,848 # c350 <wait_tx_complete+0x39d0>

0000866c <disable_wait_loop>:
    866c:	fff30313          	addi	t1,t1,-1
    8670:	fe031ee3          	bnez	t1,866c <disable_wait_loop>
    8674:	0155a023          	sw	s5,0(a1)
    8678:	00050693          	mv	a3,a0
    867c:	2d8000ef          	jal	8954 <clear_uart_interrupts>
    8680:	00058693          	mv	a3,a1
    8684:	2d0000ef          	jal	8954 <clear_uart_interrupts>
    8688:	01352823          	sw	s3,16(a0)
    868c:	00058713          	mv	a4,a1
    8690:	2d0000ef          	jal	8960 <wait_rx_complete>
    8694:	00c5a303          	lw	t1,12(a1)
    8698:	c86994e3          	bne	s3,t1,8320 <fail>
    869c:	00048093          	mv	ra,s1
    86a0:	00008067          	ret

000086a4 <test_tx_complete_flag>:
    86a4:	00008493          	mv	s1,ra
    86a8:	02100a93          	li	s5,33
    86ac:	01552023          	sw	s5,0(a0)
    86b0:	00050693          	mv	a3,a0
    86b4:	2a0000ef          	jal	8954 <clear_uart_interrupts>
    86b8:	0ab00993          	li	s3,171
    86bc:	01352823          	sw	s3,16(a0)
    86c0:	00050713          	mv	a4,a0
    86c4:	2bc000ef          	jal	8980 <wait_tx_complete>
    86c8:	00452303          	lw	t1,4(a0)
    86cc:	00137313          	andi	t1,t1,1
    86d0:	c40308e3          	beqz	t1,8320 <fail>
    86d4:	00100293          	li	t0,1
    86d8:	00552223          	sw	t0,4(a0)
    86dc:	00452303          	lw	t1,4(a0)
    86e0:	00137313          	andi	t1,t1,1
    86e4:	c2031ee3          	bnez	t1,8320 <fail>
    86e8:	00048093          	mv	ra,s1
    86ec:	00008067          	ret

000086f0 <test_tx_empty_flag>:
    86f0:	00008493          	mv	s1,ra
    86f4:	02200a93          	li	s5,34
    86f8:	01552023          	sw	s5,0(a0)
    86fc:	00050693          	mv	a3,a0
    8700:	254000ef          	jal	8954 <clear_uart_interrupts>
    8704:	0cd00993          	li	s3,205
    8708:	01352823          	sw	s3,16(a0)
    870c:	00452303          	lw	t1,4(a0)
    8710:	00237313          	andi	t1,t1,2
    8714:	c00316e3          	bnez	t1,8320 <fail>
    8718:	00050713          	mv	a4,a0
    871c:	254000ef          	jal	8970 <wait_tx_ready>
    8720:	00452303          	lw	t1,4(a0)
    8724:	00237313          	andi	t1,t1,2
    8728:	be030ce3          	beqz	t1,8320 <fail>
    872c:	00048093          	mv	ra,s1
    8730:	00008067          	ret

00008734 <test_rx_complete_flag>:
    8734:	00008493          	mv	s1,ra
    8738:	02400a93          	li	s5,36
    873c:	01552023          	sw	s5,0(a0)
    8740:	0155a023          	sw	s5,0(a1)
    8744:	00050693          	mv	a3,a0
    8748:	20c000ef          	jal	8954 <clear_uart_interrupts>
    874c:	00058693          	mv	a3,a1
    8750:	204000ef          	jal	8954 <clear_uart_interrupts>
    8754:	0ef00993          	li	s3,239
    8758:	01352823          	sw	s3,16(a0)
    875c:	00058713          	mv	a4,a1
    8760:	200000ef          	jal	8960 <wait_rx_complete>
    8764:	0045a303          	lw	t1,4(a1)
    8768:	00437313          	andi	t1,t1,4
    876c:	ba030ae3          	beqz	t1,8320 <fail>
    8770:	00c5a383          	lw	t2,12(a1)
    8774:	0045a303          	lw	t1,4(a1)
    8778:	00437313          	andi	t1,t1,4
    877c:	ba0312e3          	bnez	t1,8320 <fail>
    8780:	00048093          	mv	ra,s1
    8784:	00008067          	ret

00008788 <test_flag_clearing>:
    8788:	00008493          	mv	s1,ra
    878c:	02700a93          	li	s5,39
    8790:	01552023          	sw	s5,0(a0)
    8794:	0155a023          	sw	s5,0(a1)
    8798:	04200993          	li	s3,66
    879c:	01352823          	sw	s3,16(a0)
    87a0:	00050713          	mv	a4,a0
    87a4:	1dc000ef          	jal	8980 <wait_tx_complete>
    87a8:	00300293          	li	t0,3
    87ac:	00552223          	sw	t0,4(a0)
    87b0:	00452303          	lw	t1,4(a0)
    87b4:	00337313          	andi	t1,t1,3
    87b8:	b60314e3          	bnez	t1,8320 <fail>
    87bc:	00048093          	mv	ra,s1
    87c0:	00008067          	ret

000087c4 <test_multiple_flags>:
    87c4:	00008493          	mv	s1,ra
    87c8:	02700a93          	li	s5,39
    87cc:	01552023          	sw	s5,0(a0)
    87d0:	0155a023          	sw	s5,0(a1)
    87d4:	00050693          	mv	a3,a0
    87d8:	17c000ef          	jal	8954 <clear_uart_interrupts>
    87dc:	00058693          	mv	a3,a1
    87e0:	174000ef          	jal	8954 <clear_uart_interrupts>
    87e4:	08800993          	li	s3,136
    87e8:	01352823          	sw	s3,16(a0)
    87ec:	0135a823          	sw	s3,16(a1)
    87f0:	00050713          	mv	a4,a0
    87f4:	16c000ef          	jal	8960 <wait_rx_complete>
    87f8:	188000ef          	jal	8980 <wait_tx_complete>
    87fc:	00058713          	mv	a4,a1
    8800:	160000ef          	jal	8960 <wait_rx_complete>
    8804:	17c000ef          	jal	8980 <wait_tx_complete>
    8808:	00452303          	lw	t1,4(a0)
    880c:	00437393          	andi	t2,t1,4
    8810:	b00388e3          	beqz	t2,8320 <fail>
    8814:	00137393          	andi	t2,t1,1
    8818:	b00384e3          	beqz	t2,8320 <fail>
    881c:	00c52303          	lw	t1,12(a0)
    8820:	00c5a303          	lw	t1,12(a1)
    8824:	00048093          	mv	ra,s1
    8828:	00008067          	ret

0000882c <test_interrupt_enable>:
    882c:	00008493          	mv	s1,ra
    8830:	02000a93          	li	s5,32
    8834:	02700b93          	li	s7,39
    8838:	01552023          	sw	s5,0(a0)
    883c:	0155a023          	sw	s5,0(a1)
    8840:	00050693          	mv	a3,a0
    8844:	110000ef          	jal	8954 <clear_uart_interrupts>
    8848:	00058693          	mv	a3,a1
    884c:	108000ef          	jal	8954 <clear_uart_interrupts>
    8850:	06600993          	li	s3,102
    8854:	01352823          	sw	s3,16(a0)
    8858:	00050713          	mv	a4,a0
    885c:	124000ef          	jal	8980 <wait_tx_complete>
    8860:	00452303          	lw	t1,4(a0)
    8864:	00137313          	andi	t1,t1,1
    8868:	aa030ce3          	beqz	t1,8320 <fail>
    886c:	00c5a303          	lw	t1,12(a1)
    8870:	ab3318e3          	bne	t1,s3,8320 <fail>
    8874:	01752023          	sw	s7,0(a0)
    8878:	0175a023          	sw	s7,0(a1)
    887c:	00048093          	mv	ra,s1
    8880:	00008067          	ret

00008884 <test_continuous_flags>:
    8884:	00008493          	mv	s1,ra
    8888:	02700a93          	li	s5,39
    888c:	01552023          	sw	s5,0(a0)
    8890:	0155a023          	sw	s5,0(a1)
    8894:	00500993          	li	s3,5
    8898:	01000a13          	li	s4,16

0000889c <continuous_loop>:
    889c:	00050693          	mv	a3,a0
    88a0:	0b4000ef          	jal	8954 <clear_uart_interrupts>
    88a4:	00058693          	mv	a3,a1
    88a8:	0ac000ef          	jal	8954 <clear_uart_interrupts>
    88ac:	01452823          	sw	s4,16(a0)
    88b0:	00058713          	mv	a4,a1
    88b4:	0ac000ef          	jal	8960 <wait_rx_complete>
    88b8:	0045a303          	lw	t1,4(a1)
    88bc:	00437313          	andi	t1,t1,4
    88c0:	a60300e3          	beqz	t1,8320 <fail>
    88c4:	00c5a303          	lw	t1,12(a1)
    88c8:	a5431ce3          	bne	t1,s4,8320 <fail>
    88cc:	001a0a13          	addi	s4,s4,1
    88d0:	fff98993          	addi	s3,s3,-1
    88d4:	fc0994e3          	bnez	s3,889c <continuous_loop>
    88d8:	00048093          	mv	ra,s1
    88dc:	00008067          	ret

000088e0 <test_flag_timing>:
    88e0:	00008493          	mv	s1,ra
    88e4:	02700a93          	li	s5,39
    88e8:	01552023          	sw	s5,0(a0)
    88ec:	0155a023          	sw	s5,0(a1)
    88f0:	00050693          	mv	a3,a0
    88f4:	060000ef          	jal	8954 <clear_uart_interrupts>
    88f8:	00452303          	lw	t1,4(a0)
    88fc:	00337313          	andi	t1,t1,3
    8900:	a20310e3          	bnez	t1,8320 <fail>
    8904:	09900993          	li	s3,153
    8908:	01352823          	sw	s3,16(a0)
    890c:	00452303          	lw	t1,4(a0)
    8910:	00237313          	andi	t1,t1,2
    8914:	a00316e3          	bnez	t1,8320 <fail>
    8918:	00050713          	mv	a4,a0
    891c:	054000ef          	jal	8970 <wait_tx_ready>
    8920:	00452303          	lw	t1,4(a0)
    8924:	00237313          	andi	t1,t1,2
    8928:	9e030ce3          	beqz	t1,8320 <fail>
    892c:	054000ef          	jal	8980 <wait_tx_complete>
    8930:	00452303          	lw	t1,4(a0)
    8934:	00137313          	andi	t1,t1,1
    8938:	9e0304e3          	beqz	t1,8320 <fail>
    893c:	00c5a303          	lw	t1,12(a1)
    8940:	00048093          	mv	ra,s1
    8944:	00008067          	ret

00008948 <init_gpio_uart>:
    8948:	0f000293          	li	t0,240
    894c:	02562223          	sw	t0,36(a2)
    8950:	00008067          	ret

00008954 <clear_uart_interrupts>:
    8954:	00300293          	li	t0,3
    8958:	0056a223          	sw	t0,4(a3)
    895c:	00008067          	ret

00008960 <wait_rx_complete>:
    8960:	00472283          	lw	t0,4(a4)
    8964:	0042f293          	andi	t0,t0,4
    8968:	fe028ce3          	beqz	t0,8960 <wait_rx_complete>
    896c:	00008067          	ret

00008970 <wait_tx_ready>:
    8970:	00472283          	lw	t0,4(a4)
    8974:	0402f293          	andi	t0,t0,64
    8978:	fe029ce3          	bnez	t0,8970 <wait_tx_ready>
    897c:	00008067          	ret

00008980 <wait_tx_complete>:
    8980:	00472283          	lw	t0,4(a4)
    8984:	0012f293          	andi	t0,t0,1
    8988:	fe028ce3          	beqz	t0,8980 <wait_tx_complete>
    898c:	00008067          	ret
    8990:	c0001073          	unimp

Disassembly of section .isr_uart0_rc:

0000f400 <isr_uart0_rc>:
    f400:	f8810113          	addi	sp,sp,-120
    f404:	00112023          	sw	ra,0(sp)
    f408:	00312223          	sw	gp,4(sp)
    f40c:	00412423          	sw	tp,8(sp)
    f410:	00512623          	sw	t0,12(sp)
    f414:	00612823          	sw	t1,16(sp)
    f418:	00712a23          	sw	t2,20(sp)
    f41c:	00812c23          	sw	s0,24(sp)
    f420:	00912e23          	sw	s1,28(sp)
    f424:	02a12023          	sw	a0,32(sp)
    f428:	02b12223          	sw	a1,36(sp)
    f42c:	02c12423          	sw	a2,40(sp)
    f430:	02d12623          	sw	a3,44(sp)
    f434:	02e12823          	sw	a4,48(sp)
    f438:	02f12a23          	sw	a5,52(sp)
    f43c:	03012c23          	sw	a6,56(sp)
    f440:	03112e23          	sw	a7,60(sp)
    f444:	05212023          	sw	s2,64(sp)
    f448:	05312223          	sw	s3,68(sp)
    f44c:	05412423          	sw	s4,72(sp)
    f450:	05512623          	sw	s5,76(sp)
    f454:	05612823          	sw	s6,80(sp)
    f458:	05712a23          	sw	s7,84(sp)
    f45c:	05812c23          	sw	s8,88(sp)
    f460:	05912e23          	sw	s9,92(sp)
    f464:	07a12023          	sw	s10,96(sp)
    f468:	07b12223          	sw	s11,100(sp)
    f46c:	07c12423          	sw	t3,104(sp)
    f470:	07d12623          	sw	t4,108(sp)
    f474:	07e12823          	sw	t5,112(sp)
    f478:	07f12a23          	sw	t6,116(sp)
    f47c:	00012083          	lw	ra,0(sp)
    f480:	00412183          	lw	gp,4(sp)
    f484:	00812203          	lw	tp,8(sp)
    f488:	00c12283          	lw	t0,12(sp)
    f48c:	01012303          	lw	t1,16(sp)
    f490:	01812403          	lw	s0,24(sp)
    f494:	01c12483          	lw	s1,28(sp)
    f498:	02012503          	lw	a0,32(sp)
    f49c:	02412583          	lw	a1,36(sp)
    f4a0:	02812603          	lw	a2,40(sp)
    f4a4:	02c12683          	lw	a3,44(sp)
    f4a8:	03012703          	lw	a4,48(sp)
    f4ac:	03412783          	lw	a5,52(sp)
    f4b0:	03812803          	lw	a6,56(sp)
    f4b4:	03c12883          	lw	a7,60(sp)
    f4b8:	04012903          	lw	s2,64(sp)
    f4bc:	04412983          	lw	s3,68(sp)
    f4c0:	04812a03          	lw	s4,72(sp)
    f4c4:	04c12a83          	lw	s5,76(sp)
    f4c8:	05012b03          	lw	s6,80(sp)
    f4cc:	05412b83          	lw	s7,84(sp)
    f4d0:	05812c03          	lw	s8,88(sp)
    f4d4:	05c12c83          	lw	s9,92(sp)
    f4d8:	06012d03          	lw	s10,96(sp)
    f4dc:	06412d83          	lw	s11,100(sp)
    f4e0:	06812e03          	lw	t3,104(sp)
    f4e4:	06c12e83          	lw	t4,108(sp)
    f4e8:	07012f03          	lw	t5,112(sp)
    f4ec:	07412f83          	lw	t6,116(sp)
    f4f0:	07810113          	addi	sp,sp,120
    f4f4:	0000000b          	.insn	4, 0x000b

Disassembly of section .isr_uart0_te:

0000f600 <isr_uart0_te>:
    f600:	f8810113          	addi	sp,sp,-120
    f604:	00112023          	sw	ra,0(sp)
    f608:	00312223          	sw	gp,4(sp)
    f60c:	00412423          	sw	tp,8(sp)
    f610:	00512623          	sw	t0,12(sp)
    f614:	00612823          	sw	t1,16(sp)
    f618:	00712a23          	sw	t2,20(sp)
    f61c:	00812c23          	sw	s0,24(sp)
    f620:	00912e23          	sw	s1,28(sp)
    f624:	02a12023          	sw	a0,32(sp)
    f628:	02b12223          	sw	a1,36(sp)
    f62c:	02c12423          	sw	a2,40(sp)
    f630:	02d12623          	sw	a3,44(sp)
    f634:	02e12823          	sw	a4,48(sp)
    f638:	02f12a23          	sw	a5,52(sp)
    f63c:	03012c23          	sw	a6,56(sp)
    f640:	03112e23          	sw	a7,60(sp)
    f644:	05212023          	sw	s2,64(sp)
    f648:	05312223          	sw	s3,68(sp)
    f64c:	05412423          	sw	s4,72(sp)
    f650:	05512623          	sw	s5,76(sp)
    f654:	05612823          	sw	s6,80(sp)
    f658:	05712a23          	sw	s7,84(sp)
    f65c:	05812c23          	sw	s8,88(sp)
    f660:	05912e23          	sw	s9,92(sp)
    f664:	07a12023          	sw	s10,96(sp)
    f668:	07b12223          	sw	s11,100(sp)
    f66c:	07c12423          	sw	t3,104(sp)
    f670:	07d12623          	sw	t4,108(sp)
    f674:	07e12823          	sw	t5,112(sp)
    f678:	07f12a23          	sw	t6,116(sp)
    f67c:	00012083          	lw	ra,0(sp)
    f680:	00412183          	lw	gp,4(sp)
    f684:	00812203          	lw	tp,8(sp)
    f688:	00c12283          	lw	t0,12(sp)
    f68c:	01012303          	lw	t1,16(sp)
    f690:	01812403          	lw	s0,24(sp)
    f694:	01c12483          	lw	s1,28(sp)
    f698:	02012503          	lw	a0,32(sp)
    f69c:	02412583          	lw	a1,36(sp)
    f6a0:	02812603          	lw	a2,40(sp)
    f6a4:	02c12683          	lw	a3,44(sp)
    f6a8:	03012703          	lw	a4,48(sp)
    f6ac:	03412783          	lw	a5,52(sp)
    f6b0:	03812803          	lw	a6,56(sp)
    f6b4:	03c12883          	lw	a7,60(sp)
    f6b8:	04012903          	lw	s2,64(sp)
    f6bc:	04412983          	lw	s3,68(sp)
    f6c0:	04812a03          	lw	s4,72(sp)
    f6c4:	04c12a83          	lw	s5,76(sp)
    f6c8:	05012b03          	lw	s6,80(sp)
    f6cc:	05412b83          	lw	s7,84(sp)
    f6d0:	05812c03          	lw	s8,88(sp)
    f6d4:	05c12c83          	lw	s9,92(sp)
    f6d8:	06012d03          	lw	s10,96(sp)
    f6dc:	06412d83          	lw	s11,100(sp)
    f6e0:	06812e03          	lw	t3,104(sp)
    f6e4:	06c12e83          	lw	t4,108(sp)
    f6e8:	07012f03          	lw	t5,112(sp)
    f6ec:	07412f83          	lw	t6,116(sp)
    f6f0:	07810113          	addi	sp,sp,120
    f6f4:	0000000b          	.insn	4, 0x000b
